; Function Attrs: mustprogress uwtable
define hidden noundef zeroext i1 @_ZNK3opt6maxsmt14get_assignmentEj(ptr noundef nonnull readonly align 8 captures(none) dereferenceable(168) %0, i32 noundef %1) local_unnamed_addr #4 align 2 {
  %3 = getelementptr inbounds nuw i8, ptr %0, i64 24
  %4 = load ptr, ptr %3, align 8, !tbaa !210
  %.not = icmp eq ptr %4, null
  br i1 %.not, label %10, label %5

5:                                                ; preds = %2
  %6 = load ptr, ptr %4, align 8, !tbaa !3
  %7 = getelementptr inbounds nuw i8, ptr %6, i64 40
  %8 = load ptr, ptr %7, align 8
  %9 = tail call noundef zeroext i1 %8(ptr noundef nonnull align 8 dereferenceable(160) %4, i32 noundef %1)
  br label %10

10:                                               ; preds = %2, %5
  %.0 = phi i1 [ %9, %5 ], [ true, %2 ]
  ret i1 %.0
}